target datalayout = "e-m:e-p270:32:32-p271:32:32-p272:64:64-i64:64-i128:128-f80:128-n8:16:32:64-S128"
target triple = "x86_64-pc-linux-gnu"

@EnableJVMCI = external global i8, align 1
@UseCompiler = external global i8, align 1
@UseJVMCICompiler = external global i8, align 1

; Function Attrs: mustprogress nounwind uwtable
define hidden void @_ZN13JVMCICompiler10initializeEv(ptr noundef nonnull align 8 dereferenceable(200) %0) unnamed_addr #1 align 2 {
  %2 = alloca ptr, align 8
  store ptr %0, ptr %2, align 8
  %3 = load ptr, ptr %2, align 8
  %4 = load i8, ptr @UseCompiler, align 1
  %5 = trunc i8 %4 to i1
  br i1 %5, label %6, label %14

6:                                                ; preds = %1
  %7 = load i8, ptr @EnableJVMCI, align 1
  %8 = trunc i8 %7 to i1
  br i1 %8, label %9, label %14

9:                                                ; preds = %6
  %10 = load i8, ptr @UseJVMCICompiler, align 1
  %11 = trunc i8 %10 to i1
  br i1 %11, label %12, label %14

12:                                               ; preds = %9
  %13 = call noundef zeroext i1 @_ZN16AbstractCompiler19should_perform_initEv(ptr noundef nonnull align 8 dereferenceable(96) %3)
  br i1 %13, label %15, label %14

14:                                               ; preds = %12, %9, %6, %1
  br label %16

15:                                               ; preds = %12
  call void @_Z19compiler_stubs_initb(i1 noundef zeroext true)
  call void @_ZN16AbstractCompiler9set_stateEi(ptr noundef nonnull align 8 dereferenceable(96) %3, i32 noundef 2)
  br label %16

16:                                               ; preds = %15, %14
  ret void
}