; Function Attrs: mustprogress nounwind uwtable
define hidden void @_ZN13JVMCICompiler10initializeEv(ptr noundef nonnull align 8 dereferenceable(200) %0) unnamed_addr #1 align 2 {
  %2 = load i8, ptr @UseCompiler, align 1
  %3 = trunc i8 %2 to i1
  br i1 %3, label %4, label %13

4:                                                ; preds = %1
  %5 = load i8, ptr @EnableJVMCI, align 1
  %6 = trunc i8 %5 to i1
  br i1 %6, label %7, label %13

7:                                                ; preds = %4
  %8 = load i8, ptr @UseJVMCICompiler, align 1
  %9 = trunc i8 %8 to i1
  br i1 %9, label %10, label %13

10:                                               ; preds = %7
  %11 = tail call noundef zeroext i1 @_ZN16AbstractCompiler19should_perform_initEv(ptr noundef nonnull align 8 dereferenceable(96) %0) #10
  br i1 %11, label %12, label %13

12:                                               ; preds = %10
  tail call void @_Z19compiler_stubs_initb(i1 noundef zeroext true) #10
  tail call void @_ZN16AbstractCompiler9set_stateEi(ptr noundef nonnull align 8 dereferenceable(96) %0, i32 noundef 2) #10
  br label %13

13:                                               ; preds = %1, %4, %7, %10, %12
  ret void
}